; Function Attrs: mustprogress uwtable
define hidden void @_ZN2cv6detail8tracking7feature18CvFeatureEvaluator8setImageERKNS_3MatEhi(ptr noundef nonnull align 8 captures(none) dereferenceable(136) initializes((20, 28)) %0, ptr noundef nonnull readonly align 8 captures(none) dereferenceable(96) %1, i8 noundef zeroext %2, i32 noundef %3) unnamed_addr #1 align 2 personality ptr @__gxx_personality_v0 {
  %5 = alloca %"class.std::__cxx11::basic_string", align 8
  %6 = alloca %"class.std::allocator", align 1
  %7 = getelementptr inbounds nuw i8, ptr %1, i64 12
  %8 = load i32, ptr %7, align 4, !tbaa !32
  %9 = getelementptr inbounds nuw i8, ptr %0, i64 20
  store i32 %8, ptr %9, align 4, !tbaa !33
  %10 = getelementptr inbounds nuw i8, ptr %1, i64 8
  %11 = load i32, ptr %10, align 8, !tbaa !34
  %12 = getelementptr inbounds nuw i8, ptr %0, i64 24
  store i32 %11, ptr %12, align 8, !tbaa !35
  %13 = getelementptr inbounds nuw i8, ptr %0, i64 48
  %14 = load i32, ptr %13, align 8, !tbaa !36
  %15 = icmp slt i32 %3, %14
  br i1 %15, label %26, label %16

16:                                               ; preds = %4
  call void @llvm.lifetime.start.p0(i64 32, ptr nonnull %5) #23
  call void @llvm.lifetime.start.p0(i64 1, ptr nonnull %6) #23
  call void @_ZNSt7__cxx1112basic_stringIcSt11char_traitsIcESaIcEEC2EPKcRKS3_(ptr noundef nonnull align 8 dereferenceable(32) %5, ptr noundef nonnull @.str.3, ptr noundef nonnull align 1 dereferenceable(1) %6)
  invoke void @_ZN2cv5errorEiRKNSt7__cxx1112basic_stringIcSt11char_traitsIcESaIcEEEPKcS9_i(i32 noundef -215, ptr noundef nonnull align 8 dereferenceable(32) %5, ptr noundef nonnull @__func__._ZN2cv6detail8tracking7feature18CvFeatureEvaluator8setImageERKNS_3MatEhi, ptr noundef nonnull @.str.1, i32 noundef 52) #24
          to label %17 unwind label %18

17:                                               ; preds = %16
  unreachable

18:                                               ; preds = %16
  %19 = landingpad { ptr, i32 }
          cleanup
  %20 = load ptr, ptr %5, align 8, !tbaa !13
  %21 = getelementptr inbounds nuw i8, ptr %5, i64 16
  %22 = icmp eq ptr %20, %21
  br i1 %22, label %_ZNKSt7__cxx1112basic_stringIcSt11char_traitsIcESaIcEE11_M_is_localEv.exit.thread.i.i, label %_ZNKSt7__cxx1112basic_stringIcSt11char_traitsIcESaIcEE11_M_is_localEv.exit.i.i

_ZNKSt7__cxx1112basic_stringIcSt11char_traitsIcESaIcEE11_M_is_localEv.exit.thread.i.i: ; preds = %18
  %23 = getelementptr inbounds nuw i8, ptr %5, i64 8
  %24 = load i64, ptr %23, align 8, !tbaa !19
  %25 = icmp ult i64 %24, 16
  call void @llvm.assume(i1 %25)
  br label %_ZNSt7__cxx1112basic_stringIcSt11char_traitsIcESaIcEED2Ev.exit

_ZNKSt7__cxx1112basic_stringIcSt11char_traitsIcESaIcEE11_M_is_localEv.exit.i.i: ; preds = %18
  call void @_ZdlPv(ptr noundef %20) #25
  br label %_ZNSt7__cxx1112basic_stringIcSt11char_traitsIcESaIcEED2Ev.exit

_ZNSt7__cxx1112basic_stringIcSt11char_traitsIcESaIcEED2Ev.exit: ; preds = %_ZNKSt7__cxx1112basic_stringIcSt11char_traitsIcESaIcEE11_M_is_localEv.exit.i.i, %_ZNKSt7__cxx1112basic_stringIcSt11char_traitsIcESaIcEE11_M_is_localEv.exit.thread.i.i
  call void @llvm.lifetime.end.p0(i64 1, ptr nonnull %6) #23
  call void @llvm.lifetime.end.p0(i64 32, ptr nonnull %5) #23
  resume { ptr, i32 } %19

26:                                               ; preds = %4
  %27 = uitofp i8 %2 to float
  %28 = getelementptr inbounds nuw i8, ptr %0, i64 56
  %29 = load ptr, ptr %28, align 8, !tbaa !37
  %30 = getelementptr inbounds nuw i8, ptr %0, i64 112
  %31 = load ptr, ptr %30, align 8, !tbaa !38
  %32 = load i64, ptr %31, align 8, !tbaa !39
  %33 = sext i32 %3 to i64
  %34 = mul i64 %32, %33
  %35 = getelementptr inbounds nuw i8, ptr %29, i64 %34
  store float %27, ptr %35, align 4, !tbaa !40
  ret void
}